target datalayout = "e-m:e-p270:32:32-p271:32:32-p272:64:64-i64:64-i128:128-f80:128-n8:16:32:64-S128"
target triple = "x86_64-pc-linux-gnu"

%"class.cv::bioinspired::RetinaFilter" = type <{ i8, i8, [2 x i8], i32, i32, [4 x i8], %"class.std::valarray", %"class.std::valarray", %"class.cv::bioinspired::BasicRetinaFilter", %"class.cv::bioinspired::ParvoRetinaFilter", %"class.cv::bioinspired::MagnoRetinaFilter", %"class.cv::bioinspired::RetinaColor", ptr, i8, i8, i8, i8, float, i8, [7 x i8] }>
%"class.std::valarray" = type { i64, ptr }
%"class.cv::bioinspired::BasicRetinaFilter" = type { %"class.cv::bioinspired::TemplateBuffer", %"class.std::valarray", i32, i32, %"class.std::valarray", %"class.std::valarray", %"class.std::valarray", float, float, float, float, float, float, float, float }
%"class.cv::bioinspired::TemplateBuffer" = type { ptr, %"class.std::valarray", i64, i64, i64, i64, i64 }
%"class.cv::bioinspired::ParvoRetinaFilter" = type { ptr, %"class.cv::bioinspired::BasicRetinaFilter", %"class.std::valarray", %"class.std::valarray", %"class.std::valarray", %"class.std::valarray", %"class.std::valarray", %"class.std::valarray", %"class.std::valarray", ptr, ptr }
%"class.cv::bioinspired::MagnoRetinaFilter" = type <{ ptr, %"class.cv::bioinspired::BasicRetinaFilter", %"class.std::valarray", %"class.std::valarray", %"class.std::valarray", %"class.std::valarray", %"class.std::valarray", %"class.std::valarray", %"class.std::valarray", %"class.std::valarray", ptr, ptr, float, [4 x i8] }>
%"class.cv::bioinspired::RetinaColor" = type <{ ptr, %"class.cv::bioinspired::BasicRetinaFilter", i32, i8, [3 x i8], float, [4 x i8], ptr, ptr, %"class.std::valarray.0", %"class.std::valarray", %"class.std::valarray", %"class.std::valarray", %"class.std::valarray", %"class.std::valarray", %"class.std::valarray", %"class.std::valarray", float, float, float, i8, [3 x i8] }>
%"class.std::valarray.0" = type { i64, ptr }

; Function Attrs: inlinehint mustprogress nounwind uwtable
define linkonce_odr hidden void @_ZNSt16_Array_init_ctorIfLb1EE8_S_do_itEPfS1_f(ptr noundef %0, ptr noundef %1, float noundef %2) #6 comdat align 2 {
  %4 = alloca ptr, align 8
  %5 = alloca ptr, align 8
  %6 = alloca float, align 4
  store ptr %0, ptr %4, align 8, !tbaa !47
  store ptr %1, ptr %5, align 8, !tbaa !47
  store float %2, ptr %6, align 4, !tbaa !48
  br label %7

7:                                                ; preds = %11, %3
  %8 = load ptr, ptr %4, align 8, !tbaa !47
  %9 = load ptr, ptr %5, align 8, !tbaa !47
  %10 = icmp ne ptr %8, %9
  br i1 %10, label %11, label %15

11:                                               ; preds = %7
  %12 = load float, ptr %6, align 4, !tbaa !48
  %13 = load ptr, ptr %4, align 8, !tbaa !47
  %14 = getelementptr inbounds nuw float, ptr %13, i32 1
  store ptr %14, ptr %4, align 8, !tbaa !47
  store float %12, ptr %13, align 4, !tbaa !48
  br label %7, !llvm.loop !117

15:                                               ; preds = %7
  ret void
}

; Function Attrs: inlinehint mustprogress nounwind uwtable
define linkonce_odr hidden noundef i32 @_ZN2cv11bioinspired14TemplateBufferIfE12getNBcolumnsEv(ptr noundef nonnull align 8 dereferenceable(64) %0) #6 comdat align 2 {
  %2 = alloca ptr, align 8
  store ptr %0, ptr %2, align 8, !tbaa !82
  %3 = load ptr, ptr %2, align 8
  %4 = getelementptr inbounds nuw %"class.cv::bioinspired::TemplateBuffer", ptr %3, i32 0, i32 3
  %5 = load i64, ptr %4, align 8, !tbaa !86
  %6 = trunc i64 %5 to i32
  ret i32 %6
}

; Function Attrs: inlinehint mustprogress nounwind uwtable
define linkonce_odr hidden noundef i32 @_ZN2cv11bioinspired14TemplateBufferIfE9getNBrowsEv(ptr noundef nonnull align 8 dereferenceable(64) %0) #6 comdat align 2 {
  %2 = alloca ptr, align 8
  store ptr %0, ptr %2, align 8, !tbaa !82
  %3 = load ptr, ptr %2, align 8
  %4 = getelementptr inbounds nuw %"class.cv::bioinspired::TemplateBuffer", ptr %3, i32 0, i32 2
  %5 = load i64, ptr %4, align 8, !tbaa !85
  %6 = trunc i64 %5 to i32
  ret i32 %6
}

; Function Attrs: inlinehint mustprogress uwtable
define linkonce_odr void @_ZSt25__valarray_fill_constructIfEvPT_S1_S0_(ptr noundef %0, ptr noundef %1, float noundef %2) #5 comdat {
  %4 = alloca ptr, align 8
  %5 = alloca ptr, align 8
  %6 = alloca float, align 4
  store ptr %0, ptr %4, align 8, !tbaa !47
  store ptr %1, ptr %5, align 8, !tbaa !47
  store float %2, ptr %6, align 4, !tbaa !48
  %7 = load ptr, ptr %4, align 8, !tbaa !47
  %8 = load ptr, ptr %5, align 8, !tbaa !47
  %9 = load float, ptr %6, align 4, !tbaa !48
  call void @_ZNSt16_Array_init_ctorIfLb1EE8_S_do_itEPfS1_f(ptr noundef %7, ptr noundef %8, float noundef %9)
  ret void
}

; Function Attrs: inlinehint mustprogress uwtable
define linkonce_odr noalias noundef ptr @_ZSt22__valarray_get_storageIfEPT_m(i64 noundef %0) #5 comdat {
  %2 = alloca i64, align 8
  store i64 %0, ptr %2, align 8, !tbaa !39
  %3 = load i64, ptr %2, align 8, !tbaa !39
  %4 = mul i64 %3, 4
  %5 = call noalias noundef nonnull ptr @_Znwm(i64 noundef %4) #18
  ret ptr %5
}

; Function Attrs: inlinehint mustprogress nounwind uwtable
define linkonce_odr void @_ZSt25__valarray_release_memoryPv(ptr noundef %0) #6 comdat {
  %2 = alloca ptr, align 8
  store ptr %0, ptr %2, align 8, !tbaa !46
  %3 = load ptr, ptr %2, align 8, !tbaa !46
  call void @_ZdlPv(ptr noundef %3) #3
  ret void
}

; Function Attrs: inlinehint mustprogress nounwind uwtable
define linkonce_odr void @_ZSt27__valarray_destroy_elementsIfEvPT_S1_(ptr noundef %0, ptr noundef %1) #6 comdat {
  %3 = alloca ptr, align 8
  %4 = alloca ptr, align 8
  store ptr %0, ptr %3, align 8, !tbaa !47
  store ptr %1, ptr %4, align 8, !tbaa !47
  ret void
}

; Function Attrs: inlinehint mustprogress nounwind uwtable
define linkonce_odr hidden noundef i32 @_ZN2cv11bioinspired14TemplateBufferIfE11getNBpixelsEv(ptr noundef nonnull align 8 dereferenceable(64) %0) #6 comdat align 2 {
  %2 = alloca ptr, align 8
  store ptr %0, ptr %2, align 8, !tbaa !82
  %3 = load ptr, ptr %2, align 8
  %4 = getelementptr inbounds nuw %"class.cv::bioinspired::TemplateBuffer", ptr %3, i32 0, i32 5
  %5 = load i64, ptr %4, align 8, !tbaa !84
  %6 = trunc i64 %5 to i32
  ret i32 %6
}

; Function Attrs: inlinehint mustprogress nounwind uwtable
define linkonce_odr noundef float @_ZSt4sqrtf(float noundef %0) #6 comdat {
  %2 = alloca float, align 4
  store float %0, ptr %2, align 4, !tbaa !48
  %3 = load float, ptr %2, align 4, !tbaa !48
  %4 = call float @sqrtf(float noundef %3) #3, !tbaa !8
  ret float %4
}

; Function Attrs: inlinehint mustprogress nounwind uwtable
define linkonce_odr hidden noundef nonnull align 4 dereferenceable(4) ptr @_ZNSt8valarrayIfEixEm(ptr noundef nonnull align 8 dereferenceable(16) %0, i64 noundef %1) #6 comdat align 2 {
  %3 = alloca ptr, align 8
  %4 = alloca i64, align 8
  store ptr %0, ptr %3, align 8, !tbaa !38
  store i64 %1, ptr %4, align 8, !tbaa !39
  %5 = load ptr, ptr %3, align 8
  %6 = getelementptr inbounds nuw %"class.std::valarray", ptr %5, i32 0, i32 1
  %7 = load ptr, ptr %6, align 8, !tbaa !41
  %8 = load i64, ptr %4, align 8, !tbaa !39
  %9 = getelementptr inbounds nuw float, ptr %7, i64 %8
  ret ptr %9
}

; Function Attrs: inlinehint mustprogress uwtable
define linkonce_odr hidden noundef i32 @_ZN2cv11bioinspired17BasicRetinaFilter12getNBcolumnsEv(ptr noundef nonnull align 8 dereferenceable(168) %0) #5 comdat align 2 {
  %2 = alloca ptr, align 8
  store ptr %0, ptr %2, align 8, !tbaa !56
  %3 = load ptr, ptr %2, align 8
  %4 = getelementptr inbounds nuw %"class.cv::bioinspired::BasicRetinaFilter", ptr %3, i32 0, i32 0
  %5 = call noundef i32 @_ZN2cv11bioinspired14TemplateBufferIfE12getNBcolumnsEv(ptr noundef nonnull align 8 dereferenceable(64) %4)
  ret i32 %5
}

; Function Attrs: inlinehint mustprogress uwtable
define linkonce_odr hidden noundef i32 @_ZN2cv11bioinspired17BasicRetinaFilter9getNBrowsEv(ptr noundef nonnull align 8 dereferenceable(168) %0) #5 comdat align 2 {
  %2 = alloca ptr, align 8
  store ptr %0, ptr %2, align 8, !tbaa !56
  %3 = load ptr, ptr %2, align 8
  %4 = getelementptr inbounds nuw %"class.cv::bioinspired::BasicRetinaFilter", ptr %3, i32 0, i32 0
  %5 = call noundef i32 @_ZN2cv11bioinspired14TemplateBufferIfE9getNBrowsEv(ptr noundef nonnull align 8 dereferenceable(64) %4)
  ret i32 %5
}

; Function Attrs: inlinehint mustprogress uwtable
define linkonce_odr hidden void @_ZNSt8valarrayIfE6resizeEmf(ptr noundef nonnull align 8 dereferenceable(16) %0, i64 noundef %1, float noundef %2) #5 comdat align 2 {
  %4 = alloca ptr, align 8
  %5 = alloca i64, align 8
  %6 = alloca float, align 4
  store ptr %0, ptr %4, align 8, !tbaa !38
  store i64 %1, ptr %5, align 8, !tbaa !39
  store float %2, ptr %6, align 4, !tbaa !48
  %7 = load ptr, ptr %4, align 8
  %8 = getelementptr inbounds nuw %"class.std::valarray", ptr %7, i32 0, i32 1
  %9 = load ptr, ptr %8, align 8, !tbaa !41
  %10 = getelementptr inbounds nuw %"class.std::valarray", ptr %7, i32 0, i32 1
  %11 = load ptr, ptr %10, align 8, !tbaa !41
  %12 = getelementptr inbounds nuw %"class.std::valarray", ptr %7, i32 0, i32 0
  %13 = load i64, ptr %12, align 8, !tbaa !40
  %14 = getelementptr inbounds nuw float, ptr %11, i64 %13
  call void @_ZSt27__valarray_destroy_elementsIfEvPT_S1_(ptr noundef %9, ptr noundef %14)
  %15 = getelementptr inbounds nuw %"class.std::valarray", ptr %7, i32 0, i32 0
  %16 = load i64, ptr %15, align 8, !tbaa !40
  %17 = load i64, ptr %5, align 8, !tbaa !39
  %18 = icmp ne i64 %16, %17
  br i1 %18, label %19, label %27

19:                                               ; preds = %3
  %20 = getelementptr inbounds nuw %"class.std::valarray", ptr %7, i32 0, i32 1
  %21 = load ptr, ptr %20, align 8, !tbaa !41
  call void @_ZSt25__valarray_release_memoryPv(ptr noundef %21)
  %22 = load i64, ptr %5, align 8, !tbaa !39
  %23 = getelementptr inbounds nuw %"class.std::valarray", ptr %7, i32 0, i32 0
  store i64 %22, ptr %23, align 8, !tbaa !40
  %24 = load i64, ptr %5, align 8, !tbaa !39
  %25 = call noalias noundef ptr @_ZSt22__valarray_get_storageIfEPT_m(i64 noundef %24)
  %26 = getelementptr inbounds nuw %"class.std::valarray", ptr %7, i32 0, i32 1
  store ptr %25, ptr %26, align 8, !tbaa !41
  br label %27

27:                                               ; preds = %19, %3
  %28 = getelementptr inbounds nuw %"class.std::valarray", ptr %7, i32 0, i32 1
  %29 = load ptr, ptr %28, align 8, !tbaa !41
  %30 = getelementptr inbounds nuw %"class.std::valarray", ptr %7, i32 0, i32 1
  %31 = load ptr, ptr %30, align 8, !tbaa !41
  %32 = load i64, ptr %5, align 8, !tbaa !39
  %33 = getelementptr inbounds nuw float, ptr %31, i64 %32
  %34 = load float, ptr %6, align 4, !tbaa !48
  call void @_ZSt25__valarray_fill_constructIfEvPT_S1_S0_(ptr noundef %29, ptr noundef %33, float noundef %34)
  ret void
}

; Function Attrs: inlinehint mustprogress uwtable
define linkonce_odr hidden noundef i32 @_ZN2cv11bioinspired17BasicRetinaFilter11getNBpixelsEv(ptr noundef nonnull align 8 dereferenceable(168) %0) #5 comdat align 2 {
  %2 = alloca ptr, align 8
  store ptr %0, ptr %2, align 8, !tbaa !56
  %3 = load ptr, ptr %2, align 8
  %4 = getelementptr inbounds nuw %"class.cv::bioinspired::BasicRetinaFilter", ptr %3, i32 0, i32 0
  %5 = call noundef i32 @_ZN2cv11bioinspired14TemplateBufferIfE11getNBpixelsEv(ptr noundef nonnull align 8 dereferenceable(64) %4)
  ret i32 %5
}

; Function Attrs: mustprogress uwtable
define hidden void @_ZN2cv11bioinspired12RetinaFilter18_createHybridTableEv(ptr noundef nonnull align 8 dereferenceable(1217) %0) #4 align 2 {
  %2 = alloca ptr, align 8
  %3 = alloca i32, align 4
  %4 = alloca i32, align 4
  %5 = alloca i32, align 4
  %6 = alloca i32, align 4
  %7 = alloca ptr, align 8
  %8 = alloca float, align 4
  %9 = alloca float, align 4
  %10 = alloca float, align 4
  store ptr %0, ptr %2, align 8, !tbaa !3
  %11 = load ptr, ptr %2, align 8
  %12 = getelementptr inbounds nuw %"class.cv::bioinspired::RetinaFilter", ptr %11, i32 0, i32 6
  %13 = getelementptr inbounds nuw %"class.cv::bioinspired::RetinaFilter", ptr %11, i32 0, i32 8
  %14 = call noundef i32 @_ZN2cv11bioinspired17BasicRetinaFilter11getNBpixelsEv(ptr noundef nonnull align 8 dereferenceable(168) %13)
  %15 = zext i32 %14 to i64
  call void @_ZNSt8valarrayIfE6resizeEmf(ptr noundef nonnull align 8 dereferenceable(16) %12, i64 noundef %15, float noundef 0.000000e+00)
  %16 = getelementptr inbounds nuw %"class.cv::bioinspired::RetinaFilter", ptr %11, i32 0, i32 7
  %17 = getelementptr inbounds nuw %"class.cv::bioinspired::RetinaFilter", ptr %11, i32 0, i32 8
  %18 = call noundef i32 @_ZN2cv11bioinspired17BasicRetinaFilter11getNBpixelsEv(ptr noundef nonnull align 8 dereferenceable(168) %17)
  %19 = mul i32 %18, 2
  %20 = zext i32 %19 to i64
  call void @_ZNSt8valarrayIfE6resizeEmf(ptr noundef nonnull align 8 dereferenceable(16) %16, i64 noundef %20, float noundef 0.000000e+00)
  call void @llvm.lifetime.start.p0(i64 4, ptr %3) #3
  call void @llvm.lifetime.start.p0(i64 4, ptr %4) #3
  call void @llvm.lifetime.start.p0(i64 4, ptr %5) #3
  %21 = getelementptr inbounds nuw %"class.cv::bioinspired::RetinaFilter", ptr %11, i32 0, i32 8
  %22 = call noundef i32 @_ZN2cv11bioinspired17BasicRetinaFilter9getNBrowsEv(ptr noundef nonnull align 8 dereferenceable(168) %21)
  %23 = udiv i32 %22, 2
  store i32 %23, ptr %5, align 4, !tbaa !8
  call void @llvm.lifetime.start.p0(i64 4, ptr %6) #3
  %24 = getelementptr inbounds nuw %"class.cv::bioinspired::RetinaFilter", ptr %11, i32 0, i32 8
  %25 = call noundef i32 @_ZN2cv11bioinspired17BasicRetinaFilter12getNBcolumnsEv(ptr noundef nonnull align 8 dereferenceable(168) %24)
  %26 = udiv i32 %25, 2
  store i32 %26, ptr %6, align 4, !tbaa !8
  call void @llvm.lifetime.start.p0(i64 8, ptr %7) #3
  %27 = getelementptr inbounds nuw %"class.cv::bioinspired::RetinaFilter", ptr %11, i32 0, i32 7
  %28 = call noundef nonnull align 4 dereferenceable(4) ptr @_ZNSt8valarrayIfEixEm(ptr noundef nonnull align 8 dereferenceable(16) %27, i64 noundef 0) #3
  store ptr %28, ptr %7, align 8, !tbaa !47
  call void @llvm.lifetime.start.p0(i64 4, ptr %8) #3
  %29 = load i32, ptr %5, align 4, !tbaa !8
  %30 = load i32, ptr %6, align 4, !tbaa !8
  %31 = icmp sgt i32 %29, %30
  br i1 %31, label %32, label %34

32:                                               ; preds = %1
  %33 = load i32, ptr %6, align 4, !tbaa !8
  br label %36

34:                                               ; preds = %1
  %35 = load i32, ptr %5, align 4, !tbaa !8
  br label %36

36:                                               ; preds = %34, %32
  %37 = phi i32 [ %33, %32 ], [ %35, %34 ]
  %38 = sitofp i32 %37 to float
  %39 = fmul float %38, 0x3FE6666660000000
  store float %39, ptr %8, align 4, !tbaa !48
  store i32 0, ptr %3, align 4, !tbaa !8
  br label %40

40:                                               ; preds = %99, %36
  %41 = load i32, ptr %3, align 4, !tbaa !8
  %42 = getelementptr inbounds nuw %"class.cv::bioinspired::RetinaFilter", ptr %11, i32 0, i32 8
  %43 = call noundef i32 @_ZN2cv11bioinspired17BasicRetinaFilter9getNBrowsEv(ptr noundef nonnull align 8 dereferenceable(168) %42)
  %44 = icmp slt i32 %41, %43
  br i1 %44, label %45, label %102

45:                                               ; preds = %40
  store i32 0, ptr %4, align 4, !tbaa !8
  br label %46

46:                                               ; preds = %95, %45
  %47 = load i32, ptr %4, align 4, !tbaa !8
  %48 = getelementptr inbounds nuw %"class.cv::bioinspired::RetinaFilter", ptr %11, i32 0, i32 8
  %49 = call noundef i32 @_ZN2cv11bioinspired17BasicRetinaFilter12getNBcolumnsEv(ptr noundef nonnull align 8 dereferenceable(168) %48)
  %50 = icmp slt i32 %47, %49
  br i1 %50, label %51, label %98

51:                                               ; preds = %46
  call void @llvm.lifetime.start.p0(i64 4, ptr %9) #3
  %52 = load i32, ptr %3, align 4, !tbaa !8
  %53 = load i32, ptr %5, align 4, !tbaa !8
  %54 = sub nsw i32 %52, %53
  %55 = sitofp i32 %54 to float
  %56 = load i32, ptr %3, align 4, !tbaa !8
  %57 = load i32, ptr %5, align 4, !tbaa !8
  %58 = sub nsw i32 %56, %57
  %59 = sitofp i32 %58 to float
  %60 = load i32, ptr %4, align 4, !tbaa !8
  %61 = load i32, ptr %6, align 4, !tbaa !8
  %62 = sub nsw i32 %60, %61
  %63 = load i32, ptr %4, align 4, !tbaa !8
  %64 = load i32, ptr %6, align 4, !tbaa !8
  %65 = sub nsw i32 %63, %64
  %66 = mul nsw i32 %62, %65
  %67 = sitofp i32 %66 to float
  %68 = call float @llvm.fmuladd.f32(float %55, float %59, float %67)
  %69 = call noundef float @_ZSt4sqrtf(float noundef %68)
  store float %69, ptr %9, align 4, !tbaa !48
  %70 = load float, ptr %9, align 4, !tbaa !48
  %71 = load float, ptr %8, align 4, !tbaa !48
  %72 = fcmp olt float %70, %71
  br i1 %72, label %73, label %89

73:                                               ; preds = %51
  call void @llvm.lifetime.start.p0(i64 4, ptr %10) #3
  %74 = load float, ptr %9, align 4, !tbaa !48
  %75 = fpext float %74 to double
  %76 = fmul double 0x400921FB54442D18, %75
  %77 = load float, ptr %8, align 4, !tbaa !48
  %78 = fpext float %77 to double
  %79 = fdiv double %76, %78
  %80 = call double @cos(double noundef %79) #3, !tbaa !8
  %81 = fptrunc double %80 to float
  %82 = call float @llvm.fmuladd.f32(float 5.000000e-01, float %81, float 5.000000e-01)
  %83 = load ptr, ptr %7, align 8, !tbaa !47
  %84 = getelementptr inbounds nuw float, ptr %83, i32 1
  store ptr %84, ptr %7, align 8, !tbaa !47
  store float %82, ptr %83, align 4, !tbaa !48
  store float %82, ptr %10, align 4, !tbaa !48
  %85 = load float, ptr %10, align 4, !tbaa !48
  %86 = fsub float 1.000000e+00, %85
  %87 = load ptr, ptr %7, align 8, !tbaa !47
  %88 = getelementptr inbounds nuw float, ptr %87, i32 1
  store ptr %88, ptr %7, align 8, !tbaa !47
  store float %86, ptr %87, align 4, !tbaa !48
  call void @llvm.lifetime.end.p0(i64 4, ptr %10) #3
  br label %94

89:                                               ; preds = %51
  %90 = load ptr, ptr %7, align 8, !tbaa !47
  %91 = getelementptr inbounds nuw float, ptr %90, i32 1
  store ptr %91, ptr %7, align 8, !tbaa !47
  store float 0.000000e+00, ptr %90, align 4, !tbaa !48
  %92 = load ptr, ptr %7, align 8, !tbaa !47
  %93 = getelementptr inbounds nuw float, ptr %92, i32 1
  store ptr %93, ptr %7, align 8, !tbaa !47
  store float 1.000000e+00, ptr %92, align 4, !tbaa !48
  br label %94

94:                                               ; preds = %89, %73
  call void @llvm.lifetime.end.p0(i64 4, ptr %9) #3
  br label %95

95:                                               ; preds = %94
  %96 = load i32, ptr %4, align 4, !tbaa !8
  %97 = add nsw i32 %96, 1
  store i32 %97, ptr %4, align 4, !tbaa !8
  br label %46, !llvm.loop !49

98:                                               ; preds = %46
  br label %99

99:                                               ; preds = %98
  %100 = load i32, ptr %3, align 4, !tbaa !8
  %101 = add nsw i32 %100, 1
  store i32 %101, ptr %3, align 4, !tbaa !8
  br label %40, !llvm.loop !51

102:                                              ; preds = %40
  call void @llvm.lifetime.end.p0(i64 4, ptr %8) #3
  call void @llvm.lifetime.end.p0(i64 8, ptr %7) #3
  call void @llvm.lifetime.end.p0(i64 4, ptr %6) #3
  call void @llvm.lifetime.end.p0(i64 4, ptr %5) #3
  call void @llvm.lifetime.end.p0(i64 4, ptr %4) #3
  call void @llvm.lifetime.end.p0(i64 4, ptr %3) #3
  ret void
}